target datalayout = "e-m:e-p270:32:32-p271:32:32-p272:64:64-i64:64-i128:128-f80:128-n8:16:32:64-S128"
target triple = "x86_64-pc-linux-gnu"

%struct.gmx_ana_selparam_t = type { ptr, %struct.gmx_ana_selvalue_t, ptr, i32 }
%struct.gmx_ana_selvalue_t = type { i32, i32, %union.anon, i32 }
%union.anon = type { ptr }
%struct.methoddata_permute = type { %struct.gmx_ana_pos_t, i32, ptr, ptr }
%struct.gmx_ana_pos_t = type <{ ptr, ptr, ptr, %struct.gmx_ana_indexmap_t, i32, [4 x i8] }>
%struct.gmx_ana_indexmap_t = type { i32, ptr, ptr, %struct.t_blocka, ptr, %struct.t_blocka, i8 }
%struct.t_blocka = type { i32, ptr, i32, ptr, i32, i32 }

; Function Attrs: inlinehint mustprogress uwtable
define linkonce_odr void @_ZN18methoddata_permuteC2Ev(ptr noundef nonnull align 8 dereferenceable(176) %0) unnamed_addr #4 comdat align 2 {
  %2 = alloca ptr, align 8
  store ptr %0, ptr %2, align 8, !tbaa !11
  %3 = load ptr, ptr %2, align 8
  %4 = getelementptr inbounds nuw %struct.methoddata_permute, ptr %3, i32 0, i32 0
  call void @_ZN13gmx_ana_pos_tC1Ev(ptr noundef nonnull align 8 dereferenceable(148) %4)
  ret void
}

; Function Attrs: mustprogress uwtable
define internal noundef ptr @_ZL17init_data_permuteiP18gmx_ana_selparam_t(i32 noundef %0, ptr noundef %1) #0 personality ptr @__gxx_personality_v0 {
  %3 = alloca i32, align 4
  %4 = alloca ptr, align 8
  %5 = alloca ptr, align 8
  %6 = alloca ptr, align 8
  %7 = alloca i32, align 4
  store i32 %0, ptr %3, align 4, !tbaa !4
  store ptr %1, ptr %4, align 8, !tbaa !8
  call void @llvm.lifetime.start.p0(i64 8, ptr %5) #18
  %8 = call noalias noundef nonnull ptr @_Znwm(i64 noundef 176) #19
  call void @llvm.memset.p0.i64(ptr align 16 %8, i8 0, i64 176, i1 false)
  invoke void @_ZN18methoddata_permuteC2Ev(ptr noundef nonnull align 8 dereferenceable(176) %8)
          to label %9 unwind label %23

9:                                                ; preds = %2
  store ptr %8, ptr %5, align 8, !tbaa !11
  %10 = load ptr, ptr %5, align 8, !tbaa !11
  %11 = getelementptr inbounds nuw %struct.methoddata_permute, ptr %10, i32 0, i32 1
  store i32 0, ptr %11, align 8, !tbaa !13
  %12 = load ptr, ptr %5, align 8, !tbaa !11
  %13 = getelementptr inbounds nuw %struct.methoddata_permute, ptr %12, i32 0, i32 2
  store ptr null, ptr %13, align 8, !tbaa !22
  %14 = load ptr, ptr %5, align 8, !tbaa !11
  %15 = getelementptr inbounds nuw %struct.methoddata_permute, ptr %14, i32 0, i32 3
  store ptr null, ptr %15, align 8, !tbaa !23
  %16 = load ptr, ptr %5, align 8, !tbaa !11
  %17 = getelementptr inbounds nuw %struct.methoddata_permute, ptr %16, i32 0, i32 0
  %18 = load ptr, ptr %4, align 8, !tbaa !8
  %19 = getelementptr inbounds %struct.gmx_ana_selparam_t, ptr %18, i64 0
  %20 = getelementptr inbounds nuw %struct.gmx_ana_selparam_t, ptr %19, i32 0, i32 1
  %21 = getelementptr inbounds nuw %struct.gmx_ana_selvalue_t, ptr %20, i32 0, i32 2
  store ptr %17, ptr %21, align 8, !tbaa !24
  %22 = load ptr, ptr %5, align 8, !tbaa !11
  call void @llvm.lifetime.end.p0(i64 8, ptr %5) #18
  ret ptr %22

23:                                               ; preds = %2
  %24 = landingpad { ptr, i32 }
          cleanup
  %25 = extractvalue { ptr, i32 } %24, 0
  store ptr %25, ptr %6, align 8
  %26 = extractvalue { ptr, i32 } %24, 1
  store i32 %26, ptr %7, align 4
  call void @_ZdlPvm(ptr noundef %8, i64 noundef 176) #20
  call void @llvm.lifetime.end.p0(i64 8, ptr %5) #18
  br label %27

27:                                               ; preds = %23
  %28 = load ptr, ptr %6, align 8
  %29 = load i32, ptr %7, align 4
  %30 = insertvalue { ptr, i32 } poison, ptr %28, 0
  %31 = insertvalue { ptr, i32 } %30, i32 %29, 1
  resume { ptr, i32 } %31
}