; Function Attrs: mustprogress uwtable
define internal noundef nonnull ptr @_ZL17init_data_permuteiP18gmx_ana_selparam_t(i32 %0, ptr noundef writeonly captures(none) %1) #0 personality ptr @__gxx_personality_v0 {
  %3 = tail call noalias noundef nonnull dereferenceable(176) ptr @_Znwm(i64 noundef 176) #16
  tail call void @llvm.memset.p0.i64(ptr noundef nonnull align 16 dereferenceable(176) %3, i8 0, i64 176, i1 false)
  invoke void @_ZN13gmx_ana_pos_tC1Ev(ptr noundef nonnull align 8 dereferenceable(176) %3)
          to label %_ZN18methoddata_permuteC2Ev.exit unwind label %7

_ZN18methoddata_permuteC2Ev.exit:                 ; preds = %2
  %4 = getelementptr inbounds nuw i8, ptr %3, i64 152
  store i32 0, ptr %4, align 8, !tbaa !4
  %5 = getelementptr inbounds nuw i8, ptr %3, i64 160
  %6 = getelementptr inbounds nuw i8, ptr %1, i64 16
  tail call void @llvm.memset.p0.i64(ptr noundef nonnull align 8 dereferenceable(16) %5, i8 0, i64 16, i1 false)
  store ptr %3, ptr %6, align 8, !tbaa !17
  ret ptr %3

7:                                                ; preds = %2
  %8 = landingpad { ptr, i32 }
          cleanup
  tail call void @_ZdlPvm(ptr noundef nonnull %3, i64 noundef 176) #17
  resume { ptr, i32 } %8
}